target datalayout = "e-m:e-p270:32:32-p271:32:32-p272:64:64-i64:64-i128:128-f80:128-n8:16:32:64-S128"
target triple = "x86_64-pc-linux-gnu"

@.str.11 = private unnamed_addr constant [19 x i8] c"Header is nullptr.\00", align 1
@.str.20 = private unnamed_addr constant [18 x i8] c"Bad frame length.\00", align 1
@.str.21 = private unnamed_addr constant [26 x i8] c"Unsupported message type.\00", align 1

; Function Attrs: mustprogress nounwind uwtable
define internal noundef i32 @_ZL10load_32_lePKh(ptr noundef %0) #0 {
  %2 = alloca ptr, align 8
  store ptr %0, ptr %2, align 8, !tbaa !32
  %3 = load ptr, ptr %2, align 8, !tbaa !32
  %4 = getelementptr inbounds i8, ptr %3, i64 3
  %5 = load i8, ptr %4, align 1, !tbaa !44
  %6 = zext i8 %5 to i32
  %7 = shl i32 %6, 24
  %8 = load ptr, ptr %2, align 8, !tbaa !32
  %9 = getelementptr inbounds i8, ptr %8, i64 2
  %10 = load i8, ptr %9, align 1, !tbaa !44
  %11 = zext i8 %10 to i32
  %12 = shl i32 %11, 16
  %13 = or i32 %7, %12
  %14 = load ptr, ptr %2, align 8, !tbaa !32
  %15 = getelementptr inbounds i8, ptr %14, i64 1
  %16 = load i8, ptr %15, align 1, !tbaa !44
  %17 = zext i8 %16 to i32
  %18 = shl i32 %17, 8
  %19 = or i32 %13, %18
  %20 = load ptr, ptr %2, align 8, !tbaa !32
  %21 = getelementptr inbounds i8, ptr %20, i64 0
  %22 = load i8, ptr %21, align 1, !tbaa !44
  %23 = zext i8 %22 to i32
  %24 = or i32 %19, %23
  ret i32 %24
}

; Function Attrs: mustprogress uwtable
define internal void @_ZL20maybe_copy_error_msgPKcPPc(ptr noundef %0, ptr noundef %1) #2 {
  %3 = alloca ptr, align 8
  %4 = alloca ptr, align 8
  store ptr %0, ptr %3, align 8, !tbaa !32
  store ptr %1, ptr %4, align 8, !tbaa !17
  %5 = load ptr, ptr %4, align 8, !tbaa !17
  %6 = icmp ne ptr %5, null
  br i1 %6, label %7, label %22

7:                                                ; preds = %2
  %8 = load ptr, ptr %3, align 8, !tbaa !32
  %9 = icmp ne ptr %8, null
  br i1 %9, label %10, label %22

10:                                               ; preds = %7
  %11 = load ptr, ptr %3, align 8, !tbaa !32
  %12 = call i64 @strlen(ptr noundef %11) #9
  %13 = add i64 %12, 1
  %14 = call ptr @gpr_malloc(i64 noundef %13)
  %15 = load ptr, ptr %4, align 8, !tbaa !17
  store ptr %14, ptr %15, align 8, !tbaa !32
  %16 = load ptr, ptr %4, align 8, !tbaa !17
  %17 = load ptr, ptr %16, align 8, !tbaa !32
  %18 = load ptr, ptr %3, align 8, !tbaa !32
  %19 = load ptr, ptr %3, align 8, !tbaa !32
  %20 = call i64 @strlen(ptr noundef %19) #9
  %21 = add i64 %20, 1
  call void @llvm.memcpy.p0.p0.i64(ptr align 1 %17, ptr align 1 %18, i64 %21, i1 false)
  br label %22

22:                                               ; preds = %10, %7, %2
  ret void
}

; Function Attrs: mustprogress uwtable
define internal noundef i32 @_ZL19verify_frame_headermPhPPc(i64 noundef %0, ptr noundef %1, ptr noundef %2) #2 {
  %4 = alloca i32, align 4
  %5 = alloca i64, align 8
  %6 = alloca ptr, align 8
  %7 = alloca ptr, align 8
  %8 = alloca i64, align 8
  %9 = alloca i32, align 4
  %10 = alloca i64, align 8
  store i64 %0, ptr %5, align 8, !tbaa !14
  store ptr %1, ptr %6, align 8, !tbaa !32
  store ptr %2, ptr %7, align 8, !tbaa !17
  %11 = load ptr, ptr %6, align 8, !tbaa !32
  %12 = icmp eq ptr %11, null
  br i1 %12, label %13, label %15

13:                                               ; preds = %3
  %14 = load ptr, ptr %7, align 8, !tbaa !17
  call void @_ZL20maybe_copy_error_msgPKcPPc(ptr noundef @.str.11, ptr noundef %14)
  store i32 9, ptr %4, align 4
  br label %37

15:                                               ; preds = %3
  call void @llvm.lifetime.start.p0(i64 8, ptr %8) #8
  %16 = load ptr, ptr %6, align 8, !tbaa !32
  %17 = call noundef i32 @_ZL10load_32_lePKh(ptr noundef %16)
  %18 = zext i32 %17 to i64
  store i64 %18, ptr %8, align 8, !tbaa !14
  %19 = load i64, ptr %8, align 8, !tbaa !14
  %20 = load i64, ptr %5, align 8, !tbaa !14
  %21 = add i64 4, %20
  %22 = icmp ne i64 %19, %21
  br i1 %22, label %23, label %25

23:                                               ; preds = %15
  %24 = load ptr, ptr %7, align 8, !tbaa !17
  call void @_ZL20maybe_copy_error_msgPKcPPc(ptr noundef @.str.20, ptr noundef %24)
  store i32 13, ptr %4, align 4
  store i32 1, ptr %9, align 4
  br label %36

25:                                               ; preds = %15
  call void @llvm.lifetime.start.p0(i64 8, ptr %10) #8
  %26 = load ptr, ptr %6, align 8, !tbaa !32
  %27 = getelementptr inbounds nuw i8, ptr %26, i64 4
  %28 = call noundef i32 @_ZL10load_32_lePKh(ptr noundef %27)
  %29 = zext i32 %28 to i64
  store i64 %29, ptr %10, align 8, !tbaa !14
  %30 = load i64, ptr %10, align 8, !tbaa !14
  %31 = icmp ne i64 %30, 6
  br i1 %31, label %32, label %34

32:                                               ; preds = %25
  %33 = load ptr, ptr %7, align 8, !tbaa !17
  call void @_ZL20maybe_copy_error_msgPKcPPc(ptr noundef @.str.21, ptr noundef %33)
  store i32 13, ptr %4, align 4
  store i32 1, ptr %9, align 4
  br label %35

34:                                               ; preds = %25
  store i32 0, ptr %4, align 4
  store i32 1, ptr %9, align 4
  br label %35

35:                                               ; preds = %34, %32
  call void @llvm.lifetime.end.p0(i64 8, ptr %10) #8
  br label %36

36:                                               ; preds = %35, %23
  call void @llvm.lifetime.end.p0(i64 8, ptr %8) #8
  br label %37

37:                                               ; preds = %36, %13
  %38 = load i32, ptr %4, align 4
  ret i32 %38
}