; Function Attrs: mustprogress uwtable
define internal fastcc noundef range(i32 0, 14) i32 @_ZL19verify_frame_headermPhPPc(i64 noundef %0, ptr noundef readonly %1, ptr noundef writeonly %2) unnamed_addr #3 {
  %4 = icmp eq ptr %1, null
  br i1 %4, label %5, label %8

5:                                                ; preds = %3
  %.not15 = icmp eq ptr %2, null
  br i1 %.not15, label %_ZL20maybe_copy_error_msgPKcPPc.exit, label %6

6:                                                ; preds = %5
  %7 = tail call ptr @gpr_malloc(i64 noundef 19)
  store ptr %7, ptr %2, align 8, !tbaa !12
  tail call void @llvm.memcpy.p0.p0.i64(ptr noundef nonnull align 1 dereferenceable(19) %7, ptr noundef nonnull align 1 dereferenceable(19) @.str.11, i64 19, i1 false)
  br label %_ZL20maybe_copy_error_msgPKcPPc.exit

8:                                                ; preds = %3
  %9 = load i32, ptr %1, align 1
  %10 = zext i32 %9 to i64
  %11 = add i64 %0, 4
  %.not = icmp eq i64 %11, %10
  br i1 %.not, label %15, label %12

12:                                               ; preds = %8
  %.not13 = icmp eq ptr %2, null
  br i1 %.not13, label %_ZL20maybe_copy_error_msgPKcPPc.exit, label %13

13:                                               ; preds = %12
  %14 = tail call ptr @gpr_malloc(i64 noundef 18)
  store ptr %14, ptr %2, align 8, !tbaa !12
  tail call void @llvm.memcpy.p0.p0.i64(ptr noundef nonnull align 1 dereferenceable(18) %14, ptr noundef nonnull align 1 dereferenceable(18) @.str.20, i64 18, i1 false)
  br label %_ZL20maybe_copy_error_msgPKcPPc.exit

15:                                               ; preds = %8
  %16 = getelementptr inbounds nuw i8, ptr %1, i64 4
  %17 = load i32, ptr %16, align 1
  %.not10 = icmp eq i32 %17, 6
  br i1 %.not10, label %_ZL20maybe_copy_error_msgPKcPPc.exit, label %18

18:                                               ; preds = %15
  %.not14 = icmp eq ptr %2, null
  br i1 %.not14, label %_ZL20maybe_copy_error_msgPKcPPc.exit, label %19

19:                                               ; preds = %18
  %20 = tail call ptr @gpr_malloc(i64 noundef 26)
  store ptr %20, ptr %2, align 8, !tbaa !12
  tail call void @llvm.memcpy.p0.p0.i64(ptr noundef nonnull align 1 dereferenceable(26) %20, ptr noundef nonnull align 1 dereferenceable(26) @.str.21, i64 26, i1 false)
  br label %_ZL20maybe_copy_error_msgPKcPPc.exit

_ZL20maybe_copy_error_msgPKcPPc.exit:             ; preds = %19, %18, %13, %12, %6, %5, %15
  %.0 = phi i32 [ 0, %15 ], [ 9, %5 ], [ 9, %6 ], [ 13, %12 ], [ 13, %13 ], [ 13, %18 ], [ 13, %19 ]
  ret i32 %.0
}